target datalayout = "e-m:e-p270:32:32-p271:32:32-p272:64:64-i64:64-i128:128-f80:128-n8:16:32:64-S128"
target triple = "x86_64-pc-linux-gnu"

%struct._packet_info = type { ptr, ptr, i32, i32, %struct.nstime_t, %struct.nstime_t, %struct.nstime_t, i8, ptr, ptr, ptr, ptr, %struct._address, %struct._address, %struct._address, %struct._address, %struct._address, %struct._address, i32, ptr, i8, [3 x i8], %struct.anon, i32, i32, i32, i32, ptr, i8, ptr, ptr, i16, i16, i32, i32, i16, i32, i32, ptr, ptr, ptr, i8, i8, i16, i16, i16, i32, i16, i16, ptr, ptr, ptr, ptr, ptr, i32, i32 }
%struct.nstime_t = type { i64, i32 }
%struct._address = type { i32, i32, ptr, ptr }
%struct.anon = type { i8, [3 x i8] }

@hf_gsm_a_dtap_msg_rr_ec_ccch_type = internal global i32 0, align 4
@hf_gsm_a_rr_message_elements = internal global i32 0, align 4
@ett_ec_ccch_msg = internal global i32 0, align 4
@proto_a_ec_ccch = internal global i32 0, align 4
@.str.3064 = private unnamed_addr constant [4 x i8] c"%s \00", align 1
@.str.3065 = private unnamed_addr constant [17 x i8] c"Message Type: %s\00", align 1
@.str.3066 = private unnamed_addr constant [10 x i8] c"(Unknown)\00", align 1
@.str.3073 = private unnamed_addr constant [16 x i8] c"(EC-CCCH) (RR) \00", align 1
@.str.3074 = private unnamed_addr constant [36 x i8] c"GSM EC-CCCH - Message Type (0x%02x)\00", align 1
@.str.3075 = private unnamed_addr constant [17 x i8] c"GSM EC-CCCH - %s\00", align 1
@ett_gsm_dtap_ec_ccch_msg_rr = internal global [6 x i32] zeroinitializer, align 16
@dtap_msg_rr_ec_ccch_fcn = internal global [5 x ptr] [ptr @dtap_rr_ec_imm_ass_type_2, ptr @dtap_rr_ec_imm_ass_rej, ptr @dtap_rr_ec_dummy, ptr @dtap_rr_ec_dl_ass, ptr @dtap_rr_ec_paging_req], align 16

; Function Attrs: null_pointer_is_valid sspstrong uwtable
define internal void @get_rr_ec_ccch_msg_params(i8 noundef zeroext %0, ptr noundef %1, ptr noundef %2, ptr noundef %3, ptr noundef %4) #1 {
  %6 = alloca i8, align 1
  %7 = alloca ptr, align 8
  %8 = alloca ptr, align 8
  %9 = alloca ptr, align 8
  %10 = alloca ptr, align 8
  %11 = alloca i32, align 4
  store i8 %0, ptr %6, align 1
  store ptr %1, ptr %7, align 8
  store ptr %2, ptr %8, align 8
  store ptr %3, ptr %9, align 8
  store ptr %4, ptr %10, align 8
  call void @llvm.lifetime.start.p0(i64 4, ptr %11) #11
  %12 = load i8, ptr %6, align 1
  %13 = zext i8 %12 to i32
  %14 = and i32 %13, 255
  %15 = call ptr @try_val_to_str_idx(i32 noundef %14, ptr noundef @gsm_a_dtap_msg_rr_ec_ccch_strings, ptr noundef %11)
  %16 = load ptr, ptr %7, align 8
  store ptr %15, ptr %16, align 8
  %17 = load i32, ptr @hf_gsm_a_dtap_msg_rr_ec_ccch_type, align 4
  %18 = load ptr, ptr %9, align 8
  store i32 %17, ptr %18, align 4
  %19 = load ptr, ptr %7, align 8
  %20 = load ptr, ptr %19, align 8
  %21 = icmp ne ptr %20, null
  br i1 %21, label %22, label %33

22:                                               ; preds = %5
  %23 = load i32, ptr %11, align 4
  %24 = sext i32 %23 to i64
  %25 = getelementptr [6 x i32], ptr @ett_gsm_dtap_ec_ccch_msg_rr, i64 0, i64 %24
  %26 = load i32, ptr %25, align 4
  %27 = load ptr, ptr %8, align 8
  store i32 %26, ptr %27, align 4
  %28 = load i32, ptr %11, align 4
  %29 = sext i32 %28 to i64
  %30 = getelementptr [5 x ptr], ptr @dtap_msg_rr_ec_ccch_fcn, i64 0, i64 %29
  %31 = load ptr, ptr %30, align 8
  %32 = load ptr, ptr %10, align 8
  store ptr %31, ptr %32, align 8
  br label %33

33:                                               ; preds = %22, %5
  call void @llvm.lifetime.end.p0(i64 4, ptr %11) #11
  ret void
}

; Function Attrs: null_pointer_is_valid sspstrong uwtable
define internal i32 @dissect_ec_ccch(ptr noundef %0, ptr noundef %1, ptr noundef %2, ptr noundef %3) #1 {
  %5 = alloca ptr, align 8
  %6 = alloca ptr, align 8
  %7 = alloca ptr, align 8
  %8 = alloca ptr, align 8
  %9 = alloca ptr, align 8
  %10 = alloca i8, align 1
  %11 = alloca i32, align 4
  %12 = alloca i32, align 4
  %13 = alloca ptr, align 8
  %14 = alloca ptr, align 8
  %15 = alloca ptr, align 8
  %16 = alloca i32, align 4
  %17 = alloca i32, align 4
  store ptr %0, ptr %5, align 8
  store ptr %1, ptr %6, align 8
  store ptr %2, ptr %7, align 8
  store ptr %3, ptr %8, align 8
  call void @llvm.lifetime.start.p0(i64 8, ptr %9) #11
  call void @llvm.lifetime.start.p0(i64 1, ptr %10) #11
  call void @llvm.lifetime.start.p0(i64 4, ptr %11) #11
  call void @llvm.lifetime.start.p0(i64 4, ptr %12) #11
  call void @llvm.lifetime.start.p0(i64 8, ptr %13) #11
  store ptr null, ptr %13, align 8
  call void @llvm.lifetime.start.p0(i64 8, ptr %14) #11
  store ptr null, ptr %14, align 8
  call void @llvm.lifetime.start.p0(i64 8, ptr %15) #11
  call void @llvm.lifetime.start.p0(i64 4, ptr %16) #11
  call void @llvm.lifetime.start.p0(i64 4, ptr %17) #11
  %18 = load ptr, ptr %5, align 8
  %19 = call i32 @tvb_reported_length(ptr noundef %18)
  store i32 %19, ptr %12, align 4
  %20 = load ptr, ptr %6, align 8
  %21 = getelementptr inbounds nuw %struct._packet_info, ptr %20, i32 0, i32 1
  %22 = load ptr, ptr %21, align 8
  call void @col_append_str(ptr noundef %22, i32 noundef 25, ptr noundef @.str.3073)
  store i32 0, ptr %11, align 4
  %23 = load ptr, ptr %5, align 8
  %24 = load i32, ptr %11, align 4
  %25 = call zeroext i8 @tvb_get_bits8(ptr noundef %23, i32 noundef %24, i32 noundef 4)
  store i8 %25, ptr %10, align 1
  store ptr null, ptr %15, align 8
  store i32 -1, ptr %16, align 4
  store i32 -1, ptr %17, align 4
  store ptr null, ptr %9, align 8
  %26 = load i8, ptr %10, align 1
  call void @get_rr_ec_ccch_msg_params(i8 noundef zeroext %26, ptr noundef %15, ptr noundef %16, ptr noundef %17, ptr noundef %9)
  %27 = load ptr, ptr %15, align 8
  %28 = icmp eq ptr %27, null
  br i1 %28, label %29, label %40

29:                                               ; preds = %4
  %30 = load ptr, ptr %7, align 8
  %31 = load i32, ptr @proto_a_ec_ccch, align 4
  %32 = load ptr, ptr %5, align 8
  %33 = load i32, ptr %12, align 4
  %34 = load i8, ptr %10, align 1
  %35 = zext i8 %34 to i32
  %36 = call ptr (ptr, i32, ptr, i32, i32, ptr, ...) @proto_tree_add_protocol_format(ptr noundef %30, i32 noundef %31, ptr noundef %32, i32 noundef 0, i32 noundef %33, ptr noundef @.str.3074, i32 noundef %35)
  store ptr %36, ptr %13, align 8
  %37 = load ptr, ptr %13, align 8
  %38 = load i32, ptr @ett_ec_ccch_msg, align 4
  %39 = call ptr @proto_item_add_subtree(ptr noundef %37, i32 noundef %38)
  store ptr %39, ptr %14, align 8
  br label %53

40:                                               ; preds = %4
  %41 = load ptr, ptr %7, align 8
  %42 = load i32, ptr @proto_a_ec_ccch, align 4
  %43 = load ptr, ptr %5, align 8
  %44 = load ptr, ptr %15, align 8
  %45 = call ptr (ptr, i32, ptr, i32, i32, ptr, ...) @proto_tree_add_protocol_format(ptr noundef %41, i32 noundef %42, ptr noundef %43, i32 noundef 0, i32 noundef -1, ptr noundef @.str.3075, ptr noundef %44)
  store ptr %45, ptr %13, align 8
  %46 = load ptr, ptr %13, align 8
  %47 = load i32, ptr %16, align 4
  %48 = call ptr @proto_item_add_subtree(ptr noundef %46, i32 noundef %47)
  store ptr %48, ptr %14, align 8
  %49 = load ptr, ptr %6, align 8
  %50 = getelementptr inbounds nuw %struct._packet_info, ptr %49, i32 0, i32 1
  %51 = load ptr, ptr %50, align 8
  %52 = load ptr, ptr %15, align 8
  call void (ptr, i32, ptr, ...) @col_append_fstr(ptr noundef %51, i32 noundef 25, ptr noundef @.str.3064, ptr noundef %52)
  br label %53

53:                                               ; preds = %40, %29
  %54 = load ptr, ptr %14, align 8
  %55 = load i32, ptr %17, align 4
  %56 = load ptr, ptr %5, align 8
  %57 = load i32, ptr %11, align 4
  %58 = load i8, ptr %10, align 1
  %59 = zext i8 %58 to i32
  %60 = load ptr, ptr %15, align 8
  %61 = icmp ne ptr %60, null
  br i1 %61, label %62, label %64

62:                                               ; preds = %53
  %63 = load ptr, ptr %15, align 8
  br label %65

64:                                               ; preds = %53
  br label %65

65:                                               ; preds = %64, %62
  %66 = phi ptr [ %63, %62 ], [ @.str.3066, %64 ]
  %67 = call ptr (ptr, i32, ptr, i32, i32, i32, ptr, ...) @proto_tree_add_uint_format(ptr noundef %54, i32 noundef %55, ptr noundef %56, i32 noundef %57, i32 noundef 1, i32 noundef %59, ptr noundef @.str.3065, ptr noundef %66)
  %68 = load ptr, ptr %9, align 8
  %69 = icmp eq ptr %68, null
  br i1 %69, label %70, label %79

70:                                               ; preds = %65
  %71 = load ptr, ptr %14, align 8
  %72 = load i32, ptr @hf_gsm_a_rr_message_elements, align 4
  %73 = load ptr, ptr %5, align 8
  %74 = load i32, ptr %11, align 4
  %75 = load i32, ptr %12, align 4
  %76 = load i32, ptr %11, align 4
  %77 = sub i32 %75, %76
  %78 = call ptr @proto_tree_add_item(ptr noundef %71, i32 noundef %72, ptr noundef %73, i32 noundef %74, i32 noundef %77, i32 noundef 0)
  br label %88

79:                                               ; preds = %65
  %80 = load ptr, ptr %9, align 8
  %81 = load ptr, ptr %5, align 8
  %82 = load ptr, ptr %14, align 8
  %83 = load ptr, ptr %6, align 8
  %84 = load i32, ptr %11, align 4
  %85 = load i32, ptr %12, align 4
  %86 = load i32, ptr %11, align 4
  %87 = sub i32 %85, %86
  call void %80(ptr noundef %81, ptr noundef %82, ptr noundef %83, i32 noundef %84, i32 noundef %87)
  br label %88

88:                                               ; preds = %79, %70
  %89 = load ptr, ptr %5, align 8
  %90 = call i32 @tvb_captured_length(ptr noundef %89)
  call void @llvm.lifetime.end.p0(i64 4, ptr %17) #11
  call void @llvm.lifetime.end.p0(i64 4, ptr %16) #11
  call void @llvm.lifetime.end.p0(i64 8, ptr %15) #11
  call void @llvm.lifetime.end.p0(i64 8, ptr %14) #11
  call void @llvm.lifetime.end.p0(i64 8, ptr %13) #11
  call void @llvm.lifetime.end.p0(i64 4, ptr %12) #11
  call void @llvm.lifetime.end.p0(i64 4, ptr %11) #11
  call void @llvm.lifetime.end.p0(i64 1, ptr %10) #11
  call void @llvm.lifetime.end.p0(i64 8, ptr %9) #11
  ret i32 %90
}